target datalayout = "e-m:e-p270:32:32-p271:32:32-p272:64:64-i64:64-i128:128-f80:128-n8:16:32:64-S128"
target triple = "x86_64-pc-linux-gnu"

; Function Attrs: nounwind uwtable
define void @ff_vvc_sao_copy_ctb_to_hv(ptr noundef %0, i32 noundef %1, i32 noundef %2, i32 noundef %3) #0 {
  %5 = alloca ptr, align 8
  %6 = alloca i32, align 4
  %7 = alloca i32, align 4
  %8 = alloca i32, align 4
  store ptr %0, ptr %5, align 8, !tbaa !4
  store i32 %1, ptr %6, align 4, !tbaa !9
  store i32 %2, ptr %7, align 4, !tbaa !9
  store i32 %3, ptr %8, align 4, !tbaa !9
  %9 = load i32, ptr %7, align 4, !tbaa !9
  %10 = icmp ne i32 %9, 0
  br i1 %10, label %11, label %16

11:                                               ; preds = %4
  %12 = load ptr, ptr %5, align 8, !tbaa !4
  %13 = load i32, ptr %6, align 4, !tbaa !9
  %14 = load i32, ptr %7, align 4, !tbaa !9
  %15 = sub nsw i32 %14, 1
  call void @sao_copy_ctb_to_hv(ptr noundef %12, i32 noundef %13, i32 noundef %15, i32 noundef 0)
  br label %16

16:                                               ; preds = %11, %4
  %17 = load ptr, ptr %5, align 8, !tbaa !4
  %18 = load i32, ptr %6, align 4, !tbaa !9
  %19 = load i32, ptr %7, align 4, !tbaa !9
  call void @sao_copy_ctb_to_hv(ptr noundef %17, i32 noundef %18, i32 noundef %19, i32 noundef 1)
  %20 = load i32, ptr %8, align 4, !tbaa !9
  %21 = icmp ne i32 %20, 0
  br i1 %21, label %22, label %26

22:                                               ; preds = %16
  %23 = load ptr, ptr %5, align 8, !tbaa !4
  %24 = load i32, ptr %6, align 4, !tbaa !9
  %25 = load i32, ptr %7, align 4, !tbaa !9
  call void @sao_copy_ctb_to_hv(ptr noundef %23, i32 noundef %24, i32 noundef %25, i32 noundef 0)
  br label %26

26:                                               ; preds = %22, %16
  ret void
}