; Function Attrs: nofree norecurse nosync nounwind memory(readwrite, inaccessiblemem: none) uwtable
define void @ff_vvc_sao_copy_ctb_to_hv(ptr noundef readonly captures(none) %0, i32 noundef %1, i32 noundef %2, i32 noundef %3) local_unnamed_addr #0 {
  %.not = icmp eq i32 %2, 0
  br i1 %.not, label %.split, label %.split11

.split:                                           ; preds = %4
  %5 = getelementptr i8, ptr %0, i64 4580552
  %.val13 = load ptr, ptr %5, align 8, !tbaa !4
  %6 = getelementptr inbounds nuw i8, ptr %.val13, i64 1928
  %7 = load ptr, ptr %6, align 8, !tbaa !18
  %8 = getelementptr inbounds nuw i8, ptr %7, i64 32
  %9 = load i16, ptr %8, align 8, !tbaa !54
  %10 = zext i16 %9 to i32
  %11 = getelementptr inbounds nuw i8, ptr %7, i64 30
  %12 = load i8, ptr %11, align 2, !tbaa !58
  %13 = zext nneg i8 %12 to i32
  %14 = shl i32 %1, %13
  %15 = getelementptr inbounds nuw i8, ptr %.val13, i64 1912
  %16 = getelementptr inbounds nuw i8, ptr %.val13, i64 1936
  %17 = getelementptr inbounds nuw i8, ptr %.val13, i64 21744
  br label %copy_ctb_to_hv.exit.i

copy_ctb_to_hv.exit.i:                            ; preds = %copy_ctb_to_hv.exit.i, %.split
  %indvars.iv.i = phi i64 [ %indvars.iv.next.i, %copy_ctb_to_hv.exit.i ], [ 0, %.split ]
  %18 = phi ptr [ %45, %copy_ctb_to_hv.exit.i ], [ %7, %.split ]
  %19 = getelementptr inbounds nuw i8, ptr %18, i64 8
  %20 = getelementptr inbounds nuw [3 x i8], ptr %19, i64 0, i64 %indvars.iv.i
  %21 = load i8, ptr %20, align 1, !tbaa !59
  %22 = zext i8 %21 to i32
  %23 = ashr i32 %14, %22
  %24 = load ptr, ptr %15, align 8, !tbaa !60
  %25 = lshr i32 %10, %22
  %26 = load ptr, ptr %16, align 8, !tbaa !61
  %27 = getelementptr inbounds nuw i8, ptr %26, i64 30
  %28 = load i16, ptr %27, align 2, !tbaa !62
  %29 = zext i16 %28 to i32
  %30 = lshr i32 %29, %22
  %31 = sub nsw i32 %30, %23
  %..i = tail call i32 @llvm.smin.i32(i32 %25, i32 %31)
  %32 = getelementptr inbounds nuw [8 x ptr], ptr %24, i64 0, i64 %indvars.iv.i
  %33 = load ptr, ptr %32, align 8, !tbaa !65
  %34 = getelementptr inbounds nuw i8, ptr %18, i64 20
  %35 = load i8, ptr %34, align 4, !tbaa !66
  %36 = zext i8 %35 to i32
  %37 = shl i32 %23, %36
  %38 = sext i32 %37 to i64
  %39 = getelementptr inbounds i8, ptr %33, i64 %38
  %40 = getelementptr inbounds nuw [3 x ptr], ptr %17, i64 0, i64 %indvars.iv.i
  %41 = load ptr, ptr %40, align 8, !tbaa !65
  %42 = getelementptr inbounds i8, ptr %41, i64 %38
  %43 = shl i32 %..i, %36
  %44 = sext i32 %43 to i64
  tail call void @llvm.memcpy.p0.p0.i64(ptr align 1 %42, ptr readonly align 1 %39, i64 %44, i1 false)
  %indvars.iv.next.i = add nuw nsw i64 %indvars.iv.i, 1
  %45 = load ptr, ptr %6, align 8, !tbaa !18
  %46 = load ptr, ptr %45, align 8, !tbaa !67
  %47 = getelementptr inbounds nuw i8, ptr %46, i64 7
  %48 = load i8, ptr %47, align 1, !tbaa !68
  %.not.i = icmp ne i8 %48, 0
  %49 = icmp samesign ult i64 %indvars.iv.i, 2
  %50 = select i1 %.not.i, i1 %49, i1 false
  br i1 %50, label %copy_ctb_to_hv.exit.i, label %sao_copy_ctb_to_hv.exit, !llvm.loop !80

.split11:                                         ; preds = %4
  %51 = add nsw i32 %2, -1
  %52 = getelementptr i8, ptr %0, i64 4580552
  %.val14 = load ptr, ptr %52, align 8, !tbaa !4
  tail call fastcc void @sao_copy_ctb_to_hv(ptr %.val14, i32 noundef %1, i32 noundef %51, i32 noundef 0)
  %.val = load ptr, ptr %52, align 8, !tbaa !4
  %53 = getelementptr inbounds nuw i8, ptr %.val, i64 1928
  %54 = load ptr, ptr %53, align 8, !tbaa !18
  %55 = getelementptr inbounds nuw i8, ptr %54, i64 32
  %56 = load i16, ptr %55, align 8, !tbaa !54
  %57 = zext i16 %56 to i32
  %58 = getelementptr inbounds nuw i8, ptr %54, i64 30
  %59 = load i8, ptr %58, align 2, !tbaa !58
  %60 = zext i8 %59 to i32
  %61 = shl i32 %1, %60
  %62 = shl i32 %2, %60
  %63 = getelementptr inbounds nuw i8, ptr %.val, i64 1912
  %64 = getelementptr inbounds nuw i8, ptr %.val, i64 1936
  %65 = getelementptr inbounds nuw i8, ptr %.val, i64 21744
  %66 = shl nsw i32 %2, 1
  br label %copy_ctb_to_hv.exit.i16

copy_ctb_to_hv.exit.i16:                          ; preds = %copy_ctb_to_hv.exit.i16, %.split11
  %indvars.iv.i17 = phi i64 [ %indvars.iv.next.i19, %copy_ctb_to_hv.exit.i16 ], [ 0, %.split11 ]
  %67 = phi ptr [ %108, %copy_ctb_to_hv.exit.i16 ], [ %54, %.split11 ]
  %68 = getelementptr inbounds nuw i8, ptr %67, i64 8
  %69 = getelementptr inbounds nuw [3 x i8], ptr %68, i64 0, i64 %indvars.iv.i17
  %70 = load i8, ptr %69, align 1, !tbaa !59
  %71 = zext i8 %70 to i32
  %72 = ashr i32 %61, %71
  %73 = getelementptr inbounds nuw i8, ptr %67, i64 11
  %74 = getelementptr inbounds nuw [3 x i8], ptr %73, i64 0, i64 %indvars.iv.i17
  %75 = load i8, ptr %74, align 1, !tbaa !59
  %76 = zext nneg i8 %75 to i32
  %77 = ashr i32 %62, %76
  %78 = load ptr, ptr %63, align 8, !tbaa !60
  %79 = getelementptr inbounds nuw i8, ptr %78, i64 64
  %80 = getelementptr inbounds nuw [8 x i32], ptr %79, i64 0, i64 %indvars.iv.i17
  %81 = load i32, ptr %80, align 4, !tbaa !82
  %82 = lshr i32 %57, %71
  %83 = load ptr, ptr %64, align 8, !tbaa !61
  %84 = getelementptr inbounds nuw i8, ptr %83, i64 30
  %85 = load i16, ptr %84, align 2, !tbaa !62
  %86 = zext i16 %85 to i32
  %87 = lshr i32 %86, %71
  %88 = sub nsw i32 %87, %72
  %..i18 = tail call i32 @llvm.smin.i32(i32 %82, i32 %88)
  %89 = getelementptr inbounds nuw [8 x ptr], ptr %78, i64 0, i64 %indvars.iv.i17
  %90 = load ptr, ptr %89, align 8, !tbaa !65
  %91 = mul nsw i32 %77, %81
  %92 = getelementptr inbounds nuw i8, ptr %67, i64 20
  %93 = load i8, ptr %92, align 4, !tbaa !66
  %94 = zext i8 %93 to i32
  %95 = shl i32 %72, %94
  %96 = add nsw i32 %95, %91
  %97 = sext i32 %96 to i64
  %98 = getelementptr inbounds i8, ptr %90, i64 %97
  %99 = getelementptr inbounds nuw [3 x ptr], ptr %65, i64 0, i64 %indvars.iv.i17
  %100 = load ptr, ptr %99, align 8, !tbaa !65
  %101 = mul nsw i32 %66, %87
  %102 = add nsw i32 %101, %72
  %103 = shl i32 %102, %94
  %104 = sext i32 %103 to i64
  %105 = getelementptr inbounds i8, ptr %100, i64 %104
  %106 = shl i32 %..i18, %94
  %107 = sext i32 %106 to i64
  tail call void @llvm.memcpy.p0.p0.i64(ptr align 1 %105, ptr readonly align 1 %98, i64 %107, i1 false)
  %indvars.iv.next.i19 = add nuw nsw i64 %indvars.iv.i17, 1
  %108 = load ptr, ptr %53, align 8, !tbaa !18
  %109 = load ptr, ptr %108, align 8, !tbaa !67
  %110 = getelementptr inbounds nuw i8, ptr %109, i64 7
  %111 = load i8, ptr %110, align 1, !tbaa !68
  %.not.i20 = icmp ne i8 %111, 0
  %112 = icmp samesign ult i64 %indvars.iv.i17, 2
  %113 = select i1 %.not.i20, i1 %112, i1 false
  br i1 %113, label %copy_ctb_to_hv.exit.i16, label %sao_copy_ctb_to_hv.exit, !llvm.loop !80

sao_copy_ctb_to_hv.exit:                          ; preds = %copy_ctb_to_hv.exit.i16, %copy_ctb_to_hv.exit.i
  %.not12 = icmp eq i32 %3, 0
  br i1 %.not12, label %116, label %114

114:                                              ; preds = %sao_copy_ctb_to_hv.exit
  %115 = getelementptr i8, ptr %0, i64 4580552
  %.val15 = load ptr, ptr %115, align 8, !tbaa !4
  tail call fastcc void @sao_copy_ctb_to_hv(ptr %.val15, i32 noundef %1, i32 noundef %2, i32 noundef 0)
  br label %116

116:                                              ; preds = %114, %sao_copy_ctb_to_hv.exit
  ret void
}